; ModuleID = '34/3063.c'
source_filename = "34/3063.c"
target datalayout = "e-m:e-p270:32:32-p271:32:32-p272:64:64-i64:64-f80:128-n8:16:32:64-S128"
target triple = "x86_64-pc-linux-gnu"

@.str = private unnamed_addr constant [3 x i8] c"%d\00", align 1
@.str.1 = private unnamed_addr constant [9 x i8] c"%d/2=%d\0A\00", align 1
@.str.2 = private unnamed_addr constant [11 x i8] c"%d*3+1=%d\0A\00", align 1
@.str.3 = private unnamed_addr constant [4 x i8] c"End\00", align 1

; Function Attrs: noinline nounwind uwtable
define dso_local i32 @main() #0 {
  %1 = alloca i32, align 4
  %2 = alloca i32, align 4
  %3 = alloca i32, align 4
  store i32 0, i32* %1, align 4
  %4 = call i32 (i8*, ...) @__isoc99_scanf(i8* getelementptr inbounds ([3 x i8], [3 x i8]* @.str, i64 0, i64 0), i32* %2)
  br label %5

5:                                                ; preds = %27, %0
  %6 = load i32, i32* %2, align 4
  %7 = icmp sgt i32 %6, 1
  br i1 %7, label %8, label %28

8:                                                ; preds = %5
  %9 = load i32, i32* %2, align 4
  %10 = srem i32 %9, 2
  %11 = icmp eq i32 %10, 0
  br i1 %11, label %12, label %19

12:                                               ; preds = %8
  %13 = load i32, i32* %2, align 4
  %14 = sdiv i32 %13, 2
  store i32 %14, i32* %3, align 4
  %15 = load i32, i32* %2, align 4
  %16 = load i32, i32* %3, align 4
  %17 = call i32 (i8*, ...) @printf(i8* getelementptr inbounds ([9 x i8], [9 x i8]* @.str.1, i64 0, i64 0), i32 %15, i32 %16)
  %18 = load i32, i32* %3, align 4
  store i32 %18, i32* %2, align 4
  br label %27

19:                                               ; preds = %8
  %20 = load i32, i32* %2, align 4
  %21 = mul nsw i32 %20, 3
  %22 = add nsw i32 %21, 1
  store i32 %22, i32* %3, align 4
  %23 = load i32, i32* %2, align 4
  %24 = load i32, i32* %3, align 4
  %25 = call i32 (i8*, ...) @printf(i8* getelementptr inbounds ([11 x i8], [11 x i8]* @.str.2, i64 0, i64 0), i32 %23, i32 %24)
  %26 = load i32, i32* %3, align 4
  store i32 %26, i32* %2, align 4
  br label %27

27:                                               ; preds = %19, %12
  br label %5

28:                                               ; preds = %5
  %29 = call i32 (i8*, ...) @printf(i8* getelementptr inbounds ([4 x i8], [4 x i8]* @.str.3, i64 0, i64 0))
  %30 = call i32 @getchar()
  %31 = call i32 @getchar()
  %32 = call i32 @getchar()
  %33 = call i32 @getchar()
  %34 = call i32 @getchar()
  %35 = call i32 @getchar()
  %36 = call i32 @getchar()
  %37 = load i32, i32* %1, align 4
  ret i32 %37
}

declare dso_local i32 @__isoc99_scanf(i8*, ...) #1

declare dso_local i32 @printf(i8*, ...) #1

declare dso_local i32 @getchar() #1


!llvm.module.flags = !{!0}
!llvm.ident = !{!1}

!0 = !{i32 1, !"wchar_size", i32 4}
!1 = !{!"clang version 10.0.0-4ubuntu1 "}
